; Function Attrs: mustprogress nofree norecurse nosync nounwind willreturn memory(read, inaccessiblemem: none) uwtable
define hidden noundef i32 @_ZNK22ImmutableOopMapBuilder8size_forEPK6OopMap(ptr nocapture noundef nonnull readnone align 8 dereferenceable(56) %0, ptr nocapture noundef readonly %1) local_unnamed_addr #7 align 2 {
  %3 = getelementptr inbounds i8, ptr %1, i64 24
  %4 = load ptr, ptr %3, align 8
  %5 = getelementptr inbounds i8, ptr %4, i64 8
  %6 = load i32, ptr %5, align 8
  %7 = add i32 %6, 19
  %8 = and i32 %7, -8
  ret i32 %8
}